; Function Attrs: mustprogress nounwind uwtable
define internal fastcc void @_ZN12_GLOBAL__N_116FunctionCompiler18compileStoreLaneOpEjjjjN8WasmEdge4LLVM4TypeES3_(ptr noundef nonnull align 8 dereferenceable(200) %0, i32 noundef %1, i32 noundef %2, i32 noundef range(i32 0, 256) %3, i64 %.0.val, i64 %.0.val1) unnamed_addr #0 align 2 {
  %5 = alloca %"class.WasmEdge::LLVM::Type", align 8
  %6 = getelementptr inbounds nuw i8, ptr %0, i64 48
  %7 = load ptr, ptr %6, align 8
  %8 = getelementptr inbounds i8, ptr %7, i64 -8
  %.sroa.0.0.copyload = load ptr, ptr %8, align 8
  %9 = getelementptr inbounds nuw i8, ptr %0, i64 192
  %10 = inttoptr i64 %.0.val1 to ptr
  %11 = load ptr, ptr %9, align 8, !noalias !4221
  %12 = tail call ptr @LLVMBuildBitCast(ptr noundef %11, ptr noundef %.sroa.0.0.copyload, ptr noundef %10, ptr noundef nonnull @.str.11) #16, !noalias !4221
  %13 = getelementptr inbounds nuw i8, ptr %0, i64 8
  %14 = zext nneg i32 %3 to i64
  %15 = load ptr, ptr %13, align 8, !noalias !4224
  %16 = tail call ptr @LLVMInt64TypeInContext(ptr noundef %15) #16, !noalias !4224
  %17 = tail call ptr @LLVMConstInt(ptr noundef %16, i64 noundef %14, i32 noundef 0) #16, !noalias !4229
  %18 = load ptr, ptr %9, align 8, !noalias !4232
  %19 = tail call ptr @LLVMBuildExtractElement(ptr noundef %18, ptr noundef %12, ptr noundef %17, ptr noundef nonnull @.str.11) #16, !noalias !4232
  %20 = load ptr, ptr %6, align 8
  %21 = getelementptr inbounds i8, ptr %20, i64 -8
  store ptr %19, ptr %21, align 8
  store i64 %.0.val, ptr %5, align 8
  call fastcc void @_ZN12_GLOBAL__N_116FunctionCompiler14compileStoreOpEjjjN8WasmEdge4LLVM4TypeEbb(ptr noundef nonnull align 8 dereferenceable(200) %0, i32 noundef %1, i32 noundef %2, ptr noundef %5, i1 noundef zeroext false, i1 noundef zeroext false) #16
  ret void
}